(lp0
(iAlbum
Album
p1
(dp2
S'url'
p3
Vhttp://picasaweb.google.com/alex.bourany.64/CircuitGillesVilleneuve#
p4
sS'nom'
p5
VCircuit
p6
sS'listMiniature'
p7
(lp8
(iPhoto
Photo
p9
(dp10
g5
S'DSC_0088.jpg'
p11
sS'chemin'
p12
V./data/mesAlbums/Circuit/minis/DSC_0088.jpg
p13
sS'titre'
p14
S'Circuit Gilles Villeneuve 001'
p15
sba(iPhoto
Photo
p16
(dp17
g5
S'DSC_0089.jpg'
p18
sg12
V./data/mesAlbums/Circuit/minis/DSC_0089.jpg
p19
sg14
S'Circuit Gilles Villeneuve 002'
p20
sba(iPhoto
Photo
p21
(dp22
g5
S'DSC_0092.jpg'
p23
sg12
V./data/mesAlbums/Circuit/minis/DSC_0092.jpg
p24
sg14
S'Circuit Gilles Villeneuve 003'
p25
sba(iPhoto
Photo
p26
(dp27
g5
S'DSC_0095.jpg'
p28
sg12
V./data/mesAlbums/Circuit/minis/DSC_0095.jpg
p29
sg14
S'Circuit Gilles Villeneuve 004'
p30
sba(iPhoto
Photo
p31
(dp32
g5
S'DSC_0099.jpg'
p33
sg12
V./data/mesAlbums/Circuit/minis/DSC_0099.jpg
p34
sg14
S'Circuit Gilles Villeneuve 005'
p35
sba(iPhoto
Photo
p36
(dp37
g5
S'DSC_0101.jpg'
p38
sg12
V./data/mesAlbums/Circuit/minis/DSC_0101.jpg
p39
sg14
S'Circuit Gilles Villeneuve 006'
p40
sba(iPhoto
Photo
p41
(dp42
g5
S'DSC_0102.jpg'
p43
sg12
V./data/mesAlbums/Circuit/minis/DSC_0102.jpg
p44
sg14
S'Circuit Gilles Villeneuve 007'
p45
sba(iPhoto
Photo
p46
(dp47
g5
S'DSC_0103.jpg'
p48
sg12
V./data/mesAlbums/Circuit/minis/DSC_0103.jpg
p49
sg14
S'Circuit Gilles Villeneuve 008'
p50
sba(iPhoto
Photo
p51
(dp52
g5
S'DSC_0105.jpg'
p53
sg12
V./data/mesAlbums/Circuit/minis/DSC_0105.jpg
p54
sg14
S'Circuit Gilles Villeneuve 009'
p55
sba(iPhoto
Photo
p56
(dp57
g5
S'DSC_0106.jpg'
p58
sg12
V./data/mesAlbums/Circuit/minis/DSC_0106.jpg
p59
sg14
S'Circuit Gilles Villeneuve 010'
p60
sba(iPhoto
Photo
p61
(dp62
g5
S'DSC_0107.jpg'
p63
sg12
V./data/mesAlbums/Circuit/minis/DSC_0107.jpg
p64
sg14
S'Circuit Gilles Villeneuve 011'
p65
sba(iPhoto
Photo
p66
(dp67
g5
S'DSC_0110.jpg'
p68
sg12
V./data/mesAlbums/Circuit/minis/DSC_0110.jpg
p69
sg14
S'Circuit Gilles Villeneuve 012'
p70
sba(iPhoto
Photo
p71
(dp72
g5
S'DSC_0111.jpg'
p73
sg12
V./data/mesAlbums/Circuit/minis/DSC_0111.jpg
p74
sg14
S'Circuit Gilles Villeneuve 013'
p75
sba(iPhoto
Photo
p76
(dp77
g5
S'DSC_0113.jpg'
p78
sg12
V./data/mesAlbums/Circuit/minis/DSC_0113.jpg
p79
sg14
S'Circuit Gilles Villeneuve 014'
p80
sba(iPhoto
Photo
p81
(dp82
g5
S'DSC_0115.jpg'
p83
sg12
V./data/mesAlbums/Circuit/minis/DSC_0115.jpg
p84
sg14
S'Circuit Gilles Villeneuve 015'
p85
sba(iPhoto
Photo
p86
(dp87
g5
S'DSC_0116.jpg'
p88
sg12
V./data/mesAlbums/Circuit/minis/DSC_0116.jpg
p89
sg14
S'Circuit Gilles Villeneuve 016'
p90
sba(iPhoto
Photo
p91
(dp92
g5
S'DSC_0117.jpg'
p93
sg12
V./data/mesAlbums/Circuit/minis/DSC_0117.jpg
p94
sg14
S'Circuit Gilles Villeneuve 017'
p95
sba(iPhoto
Photo
p96
(dp97
g5
S'DSC_0118.jpg'
p98
sg12
V./data/mesAlbums/Circuit/minis/DSC_0118.jpg
p99
sg14
S'Circuit Gilles Villeneuve 018'
p100
sba(iPhoto
Photo
p101
(dp102
g5
S'DSC_0119.jpg'
p103
sg12
V./data/mesAlbums/Circuit/minis/DSC_0119.jpg
p104
sg14
S'Circuit Gilles Villeneuve 019'
p105
sba(iPhoto
Photo
p106
(dp107
g5
S'DSC_0120.jpg'
p108
sg12
V./data/mesAlbums/Circuit/minis/DSC_0120.jpg
p109
sg14
S'Circuit Gilles Villeneuve 020'
p110
sba(iPhoto
Photo
p111
(dp112
g5
S'DSC_0121.jpg'
p113
sg12
V./data/mesAlbums/Circuit/minis/DSC_0121.jpg
p114
sg14
S'Circuit Gilles Villeneuve 021'
p115
sba(iPhoto
Photo
p116
(dp117
g5
S'DSC_0122.jpg'
p118
sg12
V./data/mesAlbums/Circuit/minis/DSC_0122.jpg
p119
sg14
S'Circuit Gilles Villeneuve 022'
p120
sba(iPhoto
Photo
p121
(dp122
g5
S'DSC_0124.jpg'
p123
sg12
V./data/mesAlbums/Circuit/minis/DSC_0124.jpg
p124
sg14
S'Circuit Gilles Villeneuve 023'
p125
sba(iPhoto
Photo
p126
(dp127
g5
S'DSC_0125.jpg'
p128
sg12
V./data/mesAlbums/Circuit/minis/DSC_0125.jpg
p129
sg14
S'Circuit Gilles Villeneuve 024'
p130
sba(iPhoto
Photo
p131
(dp132
g5
S'DSC_0127.jpg'
p133
sg12
V./data/mesAlbums/Circuit/minis/DSC_0127.jpg
p134
sg14
S'Circuit Gilles Villeneuve 025'
p135
sba(iPhoto
Photo
p136
(dp137
g5
S'DSC_0128.jpg'
p138
sg12
V./data/mesAlbums/Circuit/minis/DSC_0128.jpg
p139
sg14
S'Circuit Gilles Villeneuve 026'
p140
sba(iPhoto
Photo
p141
(dp142
g5
S'DSC_0131.jpg'
p143
sg12
V./data/mesAlbums/Circuit/minis/DSC_0131.jpg
p144
sg14
S'Circuit Gilles Villeneuve 027'
p145
sba(iPhoto
Photo
p146
(dp147
g5
S'DSC_0132.jpg'
p148
sg12
V./data/mesAlbums/Circuit/minis/DSC_0132.jpg
p149
sg14
S'Circuit Gilles Villeneuve 028'
p150
sba(iPhoto
Photo
p151
(dp152
g5
S'DSC_0133.jpg'
p153
sg12
V./data/mesAlbums/Circuit/minis/DSC_0133.jpg
p154
sg14
S'Circuit Gilles Villeneuve 029'
p155
sba(iPhoto
Photo
p156
(dp157
g5
S'DSC_0134.jpg'
p158
sg12
V./data/mesAlbums/Circuit/minis/DSC_0134.jpg
p159
sg14
S'Circuit Gilles Villeneuve 030'
p160
sba(iPhoto
Photo
p161
(dp162
g5
S'DSC_0139.jpg'
p163
sg12
V./data/mesAlbums/Circuit/minis/DSC_0139.jpg
p164
sg14
S'Circuit Gilles Villeneuve 031'
p165
sba(iPhoto
Photo
p166
(dp167
S'nom'
p168
S'DSC_0088.jpg'
p169
sS'chemin'
p170
V./data/mesAlbums/Circuit/minis/DSC_0088.jpg
p171
sS'titre'
p172
S'Circuit Gilles Villeneuve 001'
p173
sba(iPhoto
Photo
p174
(dp175
g168
S'DSC_0089.jpg'
p176
sg170
V./data/mesAlbums/Circuit/minis/DSC_0089.jpg
p177
sg172
S'Circuit Gilles Villeneuve 002'
p178
sba(iPhoto
Photo
p179
(dp180
g168
S'DSC_0092.jpg'
p181
sg170
V./data/mesAlbums/Circuit/minis/DSC_0092.jpg
p182
sg172
S'Circuit Gilles Villeneuve 003'
p183
sba(iPhoto
Photo
p184
(dp185
g168
S'DSC_0095.jpg'
p186
sg170
V./data/mesAlbums/Circuit/minis/DSC_0095.jpg
p187
sg172
S'Circuit Gilles Villeneuve 004'
p188
sba(iPhoto
Photo
p189
(dp190
g168
S'DSC_0099.jpg'
p191
sg170
V./data/mesAlbums/Circuit/minis/DSC_0099.jpg
p192
sg172
S'Circuit Gilles Villeneuve 005'
p193
sba(iPhoto
Photo
p194
(dp195
g168
S'DSC_0101.jpg'
p196
sg170
V./data/mesAlbums/Circuit/minis/DSC_0101.jpg
p197
sg172
S'Circuit Gilles Villeneuve 006'
p198
sba(iPhoto
Photo
p199
(dp200
g168
S'DSC_0102.jpg'
p201
sg170
V./data/mesAlbums/Circuit/minis/DSC_0102.jpg
p202
sg172
S'Circuit Gilles Villeneuve 007'
p203
sba(iPhoto
Photo
p204
(dp205
g168
S'DSC_0103.jpg'
p206
sg170
V./data/mesAlbums/Circuit/minis/DSC_0103.jpg
p207
sg172
S'Circuit Gilles Villeneuve 008'
p208
sba(iPhoto
Photo
p209
(dp210
g168
S'DSC_0105.jpg'
p211
sg170
V./data/mesAlbums/Circuit/minis/DSC_0105.jpg
p212
sg172
S'Circuit Gilles Villeneuve 009'
p213
sba(iPhoto
Photo
p214
(dp215
g168
S'DSC_0106.jpg'
p216
sg170
V./data/mesAlbums/Circuit/minis/DSC_0106.jpg
p217
sg172
S'Circuit Gilles Villeneuve 010'
p218
sba(iPhoto
Photo
p219
(dp220
g168
S'DSC_0107.jpg'
p221
sg170
V./data/mesAlbums/Circuit/minis/DSC_0107.jpg
p222
sg172
S'Circuit Gilles Villeneuve 011'
p223
sba(iPhoto
Photo
p224
(dp225
g168
S'DSC_0110.jpg'
p226
sg170
V./data/mesAlbums/Circuit/minis/DSC_0110.jpg
p227
sg172
S'Circuit Gilles Villeneuve 012'
p228
sba(iPhoto
Photo
p229
(dp230
g168
S'DSC_0111.jpg'
p231
sg170
V./data/mesAlbums/Circuit/minis/DSC_0111.jpg
p232
sg172
S'Circuit Gilles Villeneuve 013'
p233
sba(iPhoto
Photo
p234
(dp235
g168
S'DSC_0113.jpg'
p236
sg170
V./data/mesAlbums/Circuit/minis/DSC_0113.jpg
p237
sg172
S'Circuit Gilles Villeneuve 014'
p238
sba(iPhoto
Photo
p239
(dp240
g168
S'DSC_0115.jpg'
p241
sg170
V./data/mesAlbums/Circuit/minis/DSC_0115.jpg
p242
sg172
S'Circuit Gilles Villeneuve 015'
p243
sba(iPhoto
Photo
p244
(dp245
g168
S'DSC_0116.jpg'
p246
sg170
V./data/mesAlbums/Circuit/minis/DSC_0116.jpg
p247
sg172
S'Circuit Gilles Villeneuve 016'
p248
sba(iPhoto
Photo
p249
(dp250
g168
S'DSC_0117.jpg'
p251
sg170
V./data/mesAlbums/Circuit/minis/DSC_0117.jpg
p252
sg172
S'Circuit Gilles Villeneuve 017'
p253
sba(iPhoto
Photo
p254
(dp255
g168
S'DSC_0118.jpg'
p256
sg170
V./data/mesAlbums/Circuit/minis/DSC_0118.jpg
p257
sg172
S'Circuit Gilles Villeneuve 018'
p258
sba(iPhoto
Photo
p259
(dp260
g168
S'DSC_0119.jpg'
p261
sg170
V./data/mesAlbums/Circuit/minis/DSC_0119.jpg
p262
sg172
S'Circuit Gilles Villeneuve 019'
p263
sba(iPhoto
Photo
p264
(dp265
g168
S'DSC_0120.jpg'
p266
sg170
V./data/mesAlbums/Circuit/minis/DSC_0120.jpg
p267
sg172
S'Circuit Gilles Villeneuve 020'
p268
sba(iPhoto
Photo
p269
(dp270
g168
S'DSC_0121.jpg'
p271
sg170
V./data/mesAlbums/Circuit/minis/DSC_0121.jpg
p272
sg172
S'Circuit Gilles Villeneuve 021'
p273
sba(iPhoto
Photo
p274
(dp275
g168
S'DSC_0122.jpg'
p276
sg170
V./data/mesAlbums/Circuit/minis/DSC_0122.jpg
p277
sg172
S'Circuit Gilles Villeneuve 022'
p278
sba(iPhoto
Photo
p279
(dp280
g168
S'DSC_0124.jpg'
p281
sg170
V./data/mesAlbums/Circuit/minis/DSC_0124.jpg
p282
sg172
S'Circuit Gilles Villeneuve 023'
p283
sba(iPhoto
Photo
p284
(dp285
g168
S'DSC_0125.jpg'
p286
sg170
V./data/mesAlbums/Circuit/minis/DSC_0125.jpg
p287
sg172
S'Circuit Gilles Villeneuve 024'
p288
sba(iPhoto
Photo
p289
(dp290
g168
S'DSC_0127.jpg'
p291
sg170
V./data/mesAlbums/Circuit/minis/DSC_0127.jpg
p292
sg172
S'Circuit Gilles Villeneuve 025'
p293
sba(iPhoto
Photo
p294
(dp295
g168
S'DSC_0128.jpg'
p296
sg170
V./data/mesAlbums/Circuit/minis/DSC_0128.jpg
p297
sg172
S'Circuit Gilles Villeneuve 026'
p298
sba(iPhoto
Photo
p299
(dp300
g168
S'DSC_0131.jpg'
p301
sg170
V./data/mesAlbums/Circuit/minis/DSC_0131.jpg
p302
sg172
S'Circuit Gilles Villeneuve 027'
p303
sba(iPhoto
Photo
p304
(dp305
g168
S'DSC_0132.jpg'
p306
sg170
V./data/mesAlbums/Circuit/minis/DSC_0132.jpg
p307
sg172
S'Circuit Gilles Villeneuve 028'
p308
sba(iPhoto
Photo
p309
(dp310
g168
S'DSC_0133.jpg'
p311
sg170
V./data/mesAlbums/Circuit/minis/DSC_0133.jpg
p312
sg172
S'Circuit Gilles Villeneuve 029'
p313
sba(iPhoto
Photo
p314
(dp315
g168
S'DSC_0134.jpg'
p316
sg170
V./data/mesAlbums/Circuit/minis/DSC_0134.jpg
p317
sg172
S'Circuit Gilles Villeneuve 030'
p318
sba(iPhoto
Photo
p319
(dp320
g168
S'DSC_0139.jpg'
p321
sg170
V./data/mesAlbums/Circuit/minis/DSC_0139.jpg
p322
sg172
S'Circuit Gilles Villeneuve 031'
p323
sbasS'listGrande'
p324
(lp325
(iPhoto
Photo
p326
(dp327
g5
S'DSC_0088.jpg'
p328
sg12
V./data/mesAlbums/Circuit/grandes/DSC_0088.jpg
p329
sg14
g15
sba(iPhoto
Photo
p330
(dp331
g5
S'DSC_0089.jpg'
p332
sg12
V./data/mesAlbums/Circuit/grandes/DSC_0089.jpg
p333
sg14
g20
sba(iPhoto
Photo
p334
(dp335
g5
S'DSC_0092.jpg'
p336
sg12
V./data/mesAlbums/Circuit/grandes/DSC_0092.jpg
p337
sg14
g25
sba(iPhoto
Photo
p338
(dp339
g5
S'DSC_0095.jpg'
p340
sg12
V./data/mesAlbums/Circuit/grandes/DSC_0095.jpg
p341
sg14
g30
sba(iPhoto
Photo
p342
(dp343
g5
S'DSC_0099.jpg'
p344
sg12
V./data/mesAlbums/Circuit/grandes/DSC_0099.jpg
p345
sg14
g35
sba(iPhoto
Photo
p346
(dp347
g5
S'DSC_0101.jpg'
p348
sg12
V./data/mesAlbums/Circuit/grandes/DSC_0101.jpg
p349
sg14
g40
sba(iPhoto
Photo
p350
(dp351
g5
S'DSC_0102.jpg'
p352
sg12
V./data/mesAlbums/Circuit/grandes/DSC_0102.jpg
p353
sg14
g45
sba(iPhoto
Photo
p354
(dp355
g5
S'DSC_0103.jpg'
p356
sg12
V./data/mesAlbums/Circuit/grandes/DSC_0103.jpg
p357
sg14
g50
sba(iPhoto
Photo
p358
(dp359
g5
S'DSC_0105.jpg'
p360
sg12
V./data/mesAlbums/Circuit/grandes/DSC_0105.jpg
p361
sg14
g55
sba(iPhoto
Photo
p362
(dp363
g5
S'DSC_0106.jpg'
p364
sg12
V./data/mesAlbums/Circuit/grandes/DSC_0106.jpg
p365
sg14
g60
sba(iPhoto
Photo
p366
(dp367
g5
S'DSC_0107.jpg'
p368
sg12
V./data/mesAlbums/Circuit/grandes/DSC_0107.jpg
p369
sg14
g65
sba(iPhoto
Photo
p370
(dp371
g5
S'DSC_0110.jpg'
p372
sg12
V./data/mesAlbums/Circuit/grandes/DSC_0110.jpg
p373
sg14
g70
sba(iPhoto
Photo
p374
(dp375
g5
S'DSC_0111.jpg'
p376
sg12
V./data/mesAlbums/Circuit/grandes/DSC_0111.jpg
p377
sg14
g75
sba(iPhoto
Photo
p378
(dp379
g5
S'DSC_0113.jpg'
p380
sg12
V./data/mesAlbums/Circuit/grandes/DSC_0113.jpg
p381
sg14
g80
sba(iPhoto
Photo
p382
(dp383
g5
S'DSC_0115.jpg'
p384
sg12
V./data/mesAlbums/Circuit/grandes/DSC_0115.jpg
p385
sg14
g85
sba(iPhoto
Photo
p386
(dp387
g5
S'DSC_0116.jpg'
p388
sg12
V./data/mesAlbums/Circuit/grandes/DSC_0116.jpg
p389
sg14
g90
sba(iPhoto
Photo
p390
(dp391
g5
S'DSC_0117.jpg'
p392
sg12
V./data/mesAlbums/Circuit/grandes/DSC_0117.jpg
p393
sg14
g95
sba(iPhoto
Photo
p394
(dp395
g5
S'DSC_0118.jpg'
p396
sg12
V./data/mesAlbums/Circuit/grandes/DSC_0118.jpg
p397
sg14
g100
sba(iPhoto
Photo
p398
(dp399
g5
S'DSC_0119.jpg'
p400
sg12
V./data/mesAlbums/Circuit/grandes/DSC_0119.jpg
p401
sg14
g105
sba(iPhoto
Photo
p402
(dp403
g5
S'DSC_0120.jpg'
p404
sg12
V./data/mesAlbums/Circuit/grandes/DSC_0120.jpg
p405
sg14
g110
sba(iPhoto
Photo
p406
(dp407
g5
S'DSC_0121.jpg'
p408
sg12
V./data/mesAlbums/Circuit/grandes/DSC_0121.jpg
p409
sg14
g115
sba(iPhoto
Photo
p410
(dp411
g5
S'DSC_0122.jpg'
p412
sg12
V./data/mesAlbums/Circuit/grandes/DSC_0122.jpg
p413
sg14
g120
sba(iPhoto
Photo
p414
(dp415
g5
S'DSC_0124.jpg'
p416
sg12
V./data/mesAlbums/Circuit/grandes/DSC_0124.jpg
p417
sg14
g125
sba(iPhoto
Photo
p418
(dp419
g5
S'DSC_0125.jpg'
p420
sg12
V./data/mesAlbums/Circuit/grandes/DSC_0125.jpg
p421
sg14
g130
sba(iPhoto
Photo
p422
(dp423
g5
S'DSC_0127.jpg'
p424
sg12
V./data/mesAlbums/Circuit/grandes/DSC_0127.jpg
p425
sg14
g135
sba(iPhoto
Photo
p426
(dp427
g5
S'DSC_0128.jpg'
p428
sg12
V./data/mesAlbums/Circuit/grandes/DSC_0128.jpg
p429
sg14
g140
sba(iPhoto
Photo
p430
(dp431
g5
S'DSC_0131.jpg'
p432
sg12
V./data/mesAlbums/Circuit/grandes/DSC_0131.jpg
p433
sg14
g145
sba(iPhoto
Photo
p434
(dp435
g5
S'DSC_0132.jpg'
p436
sg12
V./data/mesAlbums/Circuit/grandes/DSC_0132.jpg
p437
sg14
g150
sba(iPhoto
Photo
p438
(dp439
g5
S'DSC_0133.jpg'
p440
sg12
V./data/mesAlbums/Circuit/grandes/DSC_0133.jpg
p441
sg14
g155
sba(iPhoto
Photo
p442
(dp443
g5
S'DSC_0134.jpg'
p444
sg12
V./data/mesAlbums/Circuit/grandes/DSC_0134.jpg
p445
sg14
g160
sba(iPhoto
Photo
p446
(dp447
g5
S'DSC_0139.jpg'
p448
sg12
V./data/mesAlbums/Circuit/grandes/DSC_0139.jpg
p449
sg14
g165
sba(iPhoto
Photo
p450
(dp451
g168
S'DSC_0088.jpg'
p452
sg170
V./data/mesAlbums/Circuit/grandes/DSC_0088.jpg
p453
sg172
g173
sba(iPhoto
Photo
p454
(dp455
g168
S'DSC_0089.jpg'
p456
sg170
V./data/mesAlbums/Circuit/grandes/DSC_0089.jpg
p457
sg172
g178
sba(iPhoto
Photo
p458
(dp459
g168
S'DSC_0092.jpg'
p460
sg170
V./data/mesAlbums/Circuit/grandes/DSC_0092.jpg
p461
sg172
g183
sba(iPhoto
Photo
p462
(dp463
g168
S'DSC_0095.jpg'
p464
sg170
V./data/mesAlbums/Circuit/grandes/DSC_0095.jpg
p465
sg172
g188
sba(iPhoto
Photo
p466
(dp467
g168
S'DSC_0099.jpg'
p468
sg170
V./data/mesAlbums/Circuit/grandes/DSC_0099.jpg
p469
sg172
g193
sba(iPhoto
Photo
p470
(dp471
g168
S'DSC_0101.jpg'
p472
sg170
V./data/mesAlbums/Circuit/grandes/DSC_0101.jpg
p473
sg172
g198
sba(iPhoto
Photo
p474
(dp475
g168
S'DSC_0102.jpg'
p476
sg170
V./data/mesAlbums/Circuit/grandes/DSC_0102.jpg
p477
sg172
g203
sba(iPhoto
Photo
p478
(dp479
g168
S'DSC_0103.jpg'
p480
sg170
V./data/mesAlbums/Circuit/grandes/DSC_0103.jpg
p481
sg172
g208
sba(iPhoto
Photo
p482
(dp483
g168
S'DSC_0105.jpg'
p484
sg170
V./data/mesAlbums/Circuit/grandes/DSC_0105.jpg
p485
sg172
g213
sba(iPhoto
Photo
p486
(dp487
g168
S'DSC_0106.jpg'
p488
sg170
V./data/mesAlbums/Circuit/grandes/DSC_0106.jpg
p489
sg172
g218
sba(iPhoto
Photo
p490
(dp491
g168
S'DSC_0107.jpg'
p492
sg170
V./data/mesAlbums/Circuit/grandes/DSC_0107.jpg
p493
sg172
g223
sba(iPhoto
Photo
p494
(dp495
g168
S'DSC_0110.jpg'
p496
sg170
V./data/mesAlbums/Circuit/grandes/DSC_0110.jpg
p497
sg172
g228
sba(iPhoto
Photo
p498
(dp499
g168
S'DSC_0111.jpg'
p500
sg170
V./data/mesAlbums/Circuit/grandes/DSC_0111.jpg
p501
sg172
g233
sba(iPhoto
Photo
p502
(dp503
g168
S'DSC_0113.jpg'
p504
sg170
V./data/mesAlbums/Circuit/grandes/DSC_0113.jpg
p505
sg172
g238
sba(iPhoto
Photo
p506
(dp507
g168
S'DSC_0115.jpg'
p508
sg170
V./data/mesAlbums/Circuit/grandes/DSC_0115.jpg
p509
sg172
g243
sba(iPhoto
Photo
p510
(dp511
g168
S'DSC_0116.jpg'
p512
sg170
V./data/mesAlbums/Circuit/grandes/DSC_0116.jpg
p513
sg172
g248
sba(iPhoto
Photo
p514
(dp515
g168
S'DSC_0117.jpg'
p516
sg170
V./data/mesAlbums/Circuit/grandes/DSC_0117.jpg
p517
sg172
g253
sba(iPhoto
Photo
p518
(dp519
g168
S'DSC_0118.jpg'
p520
sg170
V./data/mesAlbums/Circuit/grandes/DSC_0118.jpg
p521
sg172
g258
sba(iPhoto
Photo
p522
(dp523
g168
S'DSC_0119.jpg'
p524
sg170
V./data/mesAlbums/Circuit/grandes/DSC_0119.jpg
p525
sg172
g263
sba(iPhoto
Photo
p526
(dp527
g168
S'DSC_0120.jpg'
p528
sg170
V./data/mesAlbums/Circuit/grandes/DSC_0120.jpg
p529
sg172
g268
sba(iPhoto
Photo
p530
(dp531
g168
S'DSC_0121.jpg'
p532
sg170
V./data/mesAlbums/Circuit/grandes/DSC_0121.jpg
p533
sg172
g273
sba(iPhoto
Photo
p534
(dp535
g168
S'DSC_0122.jpg'
p536
sg170
V./data/mesAlbums/Circuit/grandes/DSC_0122.jpg
p537
sg172
g278
sba(iPhoto
Photo
p538
(dp539
g168
S'DSC_0124.jpg'
p540
sg170
V./data/mesAlbums/Circuit/grandes/DSC_0124.jpg
p541
sg172
g283
sba(iPhoto
Photo
p542
(dp543
g168
S'DSC_0125.jpg'
p544
sg170
V./data/mesAlbums/Circuit/grandes/DSC_0125.jpg
p545
sg172
g288
sba(iPhoto
Photo
p546
(dp547
g168
S'DSC_0127.jpg'
p548
sg170
V./data/mesAlbums/Circuit/grandes/DSC_0127.jpg
p549
sg172
g293
sba(iPhoto
Photo
p550
(dp551
g168
S'DSC_0128.jpg'
p552
sg170
V./data/mesAlbums/Circuit/grandes/DSC_0128.jpg
p553
sg172
g298
sba(iPhoto
Photo
p554
(dp555
g168
S'DSC_0131.jpg'
p556
sg170
V./data/mesAlbums/Circuit/grandes/DSC_0131.jpg
p557
sg172
g303
sba(iPhoto
Photo
p558
(dp559
g168
S'DSC_0132.jpg'
p560
sg170
V./data/mesAlbums/Circuit/grandes/DSC_0132.jpg
p561
sg172
g308
sba(iPhoto
Photo
p562
(dp563
g168
S'DSC_0133.jpg'
p564
sg170
V./data/mesAlbums/Circuit/grandes/DSC_0133.jpg
p565
sg172
g313
sba(iPhoto
Photo
p566
(dp567
g168
S'DSC_0134.jpg'
p568
sg170
V./data/mesAlbums/Circuit/grandes/DSC_0134.jpg
p569
sg172
g318
sba(iPhoto
Photo
p570
(dp571
g168
S'DSC_0139.jpg'
p572
sg170
V./data/mesAlbums/Circuit/grandes/DSC_0139.jpg
p573
sg172
g323
sbasba(iAlbum
Album
p574
(dp575
g3
Vhttp://picasaweb.google.com/alex.bourany.64/Alex#
p576
sg5
VAlex !!!
p577
sg7
(lp578
(iPhoto
Photo
p579
(dp580
g5
S'DSC_0007.jpg'
p581
sg12
V./data/mesAlbums/Alex !!!/minis/DSC_0007.jpg
p582
sg14
S'Alex 001'
p583
sba(iPhoto
Photo
p584
(dp585
g5
S'DSC_0014.jpg'
p586
sg12
V./data/mesAlbums/Alex !!!/minis/DSC_0014.jpg
p587
sg14
S'Alex 002'
p588
sba(iPhoto
Photo
p589
(dp590
g5
S'DSC_0016.jpg'
p591
sg12
V./data/mesAlbums/Alex !!!/minis/DSC_0016.jpg
p592
sg14
S'Alex 003'
p593
sbasg324
(lp594
(iPhoto
Photo
p595
(dp596
g5
S'DSC_0007.jpg'
p597
sg12
V./data/mesAlbums/Alex !!!/grandes/DSC_0007.jpg
p598
sg14
g583
sba(iPhoto
Photo
p599
(dp600
g5
S'DSC_0014.jpg'
p601
sg12
V./data/mesAlbums/Alex !!!/grandes/DSC_0014.jpg
p602
sg14
g588
sba(iPhoto
Photo
p603
(dp604
g5
S'DSC_0016.jpg'
p605
sg12
V./data/mesAlbums/Alex !!!/grandes/DSC_0016.jpg
p606
sg14
g593
sbasba.