(lp0
(iAlbum
Album
p1
(dp2
S'url'
p3
Vhttp://picasaweb.google.com/alex.bourany.64/CircuitGillesVilleneuve#
p4
sS'nom'
p5
VCircuit
p6
sS'listMiniature'
p7
(lp8
(iPhoto
Photo
p9
(dp10
g5
S'DSC_0088.jpg'
p11
sS'chemin'
p12
V./data/mesAlbums/Circuit/minis/DSC_0088.jpg
p13
sS'titre'
p14
S'Circuit Gilles Villeneuve 001'
p15
sba(iPhoto
Photo
p16
(dp17
g5
S'DSC_0089.jpg'
p18
sg12
V./data/mesAlbums/Circuit/minis/DSC_0089.jpg
p19
sg14
S'Circuit Gilles Villeneuve 002'
p20
sba(iPhoto
Photo
p21
(dp22
g5
S'DSC_0092.jpg'
p23
sg12
V./data/mesAlbums/Circuit/minis/DSC_0092.jpg
p24
sg14
S'Circuit Gilles Villeneuve 003'
p25
sba(iPhoto
Photo
p26
(dp27
g5
S'DSC_0095.jpg'
p28
sg12
V./data/mesAlbums/Circuit/minis/DSC_0095.jpg
p29
sg14
S'Circuit Gilles Villeneuve 004'
p30
sba(iPhoto
Photo
p31
(dp32
g5
S'DSC_0099.jpg'
p33
sg12
V./data/mesAlbums/Circuit/minis/DSC_0099.jpg
p34
sg14
S'Circuit Gilles Villeneuve 005'
p35
sba(iPhoto
Photo
p36
(dp37
g5
S'DSC_0101.jpg'
p38
sg12
V./data/mesAlbums/Circuit/minis/DSC_0101.jpg
p39
sg14
S'Circuit Gilles Villeneuve 006'
p40
sba(iPhoto
Photo
p41
(dp42
g5
S'DSC_0102.jpg'
p43
sg12
V./data/mesAlbums/Circuit/minis/DSC_0102.jpg
p44
sg14
S'Circuit Gilles Villeneuve 007'
p45
sba(iPhoto
Photo
p46
(dp47
g5
S'DSC_0103.jpg'
p48
sg12
V./data/mesAlbums/Circuit/minis/DSC_0103.jpg
p49
sg14
S'Circuit Gilles Villeneuve 008'
p50
sba(iPhoto
Photo
p51
(dp52
g5
S'DSC_0105.jpg'
p53
sg12
V./data/mesAlbums/Circuit/minis/DSC_0105.jpg
p54
sg14
S'Circuit Gilles Villeneuve 009'
p55
sba(iPhoto
Photo
p56
(dp57
g5
S'DSC_0106.jpg'
p58
sg12
V./data/mesAlbums/Circuit/minis/DSC_0106.jpg
p59
sg14
S'Circuit Gilles Villeneuve 010'
p60
sba(iPhoto
Photo
p61
(dp62
g5
S'DSC_0107.jpg'
p63
sg12
V./data/mesAlbums/Circuit/minis/DSC_0107.jpg
p64
sg14
S'Circuit Gilles Villeneuve 011'
p65
sba(iPhoto
Photo
p66
(dp67
g5
S'DSC_0110.jpg'
p68
sg12
V./data/mesAlbums/Circuit/minis/DSC_0110.jpg
p69
sg14
S'Circuit Gilles Villeneuve 012'
p70
sba(iPhoto
Photo
p71
(dp72
g5
S'DSC_0111.jpg'
p73
sg12
V./data/mesAlbums/Circuit/minis/DSC_0111.jpg
p74
sg14
S'Circuit Gilles Villeneuve 013'
p75
sba(iPhoto
Photo
p76
(dp77
g5
S'DSC_0113.jpg'
p78
sg12
V./data/mesAlbums/Circuit/minis/DSC_0113.jpg
p79
sg14
S'Circuit Gilles Villeneuve 014'
p80
sba(iPhoto
Photo
p81
(dp82
g5
S'DSC_0115.jpg'
p83
sg12
V./data/mesAlbums/Circuit/minis/DSC_0115.jpg
p84
sg14
S'Circuit Gilles Villeneuve 015'
p85
sba(iPhoto
Photo
p86
(dp87
g5
S'DSC_0116.jpg'
p88
sg12
V./data/mesAlbums/Circuit/minis/DSC_0116.jpg
p89
sg14
S'Circuit Gilles Villeneuve 016'
p90
sba(iPhoto
Photo
p91
(dp92
g5
S'DSC_0117.jpg'
p93
sg12
V./data/mesAlbums/Circuit/minis/DSC_0117.jpg
p94
sg14
S'Circuit Gilles Villeneuve 017'
p95
sba(iPhoto
Photo
p96
(dp97
g5
S'DSC_0118.jpg'
p98
sg12
V./data/mesAlbums/Circuit/minis/DSC_0118.jpg
p99
sg14
S'Circuit Gilles Villeneuve 018'
p100
sba(iPhoto
Photo
p101
(dp102
g5
S'DSC_0119.jpg'
p103
sg12
V./data/mesAlbums/Circuit/minis/DSC_0119.jpg
p104
sg14
S'Circuit Gilles Villeneuve 019'
p105
sba(iPhoto
Photo
p106
(dp107
g5
S'DSC_0120.jpg'
p108
sg12
V./data/mesAlbums/Circuit/minis/DSC_0120.jpg
p109
sg14
S'Circuit Gilles Villeneuve 020'
p110
sba(iPhoto
Photo
p111
(dp112
g5
S'DSC_0121.jpg'
p113
sg12
V./data/mesAlbums/Circuit/minis/DSC_0121.jpg
p114
sg14
S'Circuit Gilles Villeneuve 021'
p115
sba(iPhoto
Photo
p116
(dp117
g5
S'DSC_0122.jpg'
p118
sg12
V./data/mesAlbums/Circuit/minis/DSC_0122.jpg
p119
sg14
S'Circuit Gilles Villeneuve 022'
p120
sba(iPhoto
Photo
p121
(dp122
g5
S'DSC_0124.jpg'
p123
sg12
V./data/mesAlbums/Circuit/minis/DSC_0124.jpg
p124
sg14
S'Circuit Gilles Villeneuve 023'
p125
sba(iPhoto
Photo
p126
(dp127
g5
S'DSC_0125.jpg'
p128
sg12
V./data/mesAlbums/Circuit/minis/DSC_0125.jpg
p129
sg14
S'Circuit Gilles Villeneuve 024'
p130
sba(iPhoto
Photo
p131
(dp132
g5
S'DSC_0127.jpg'
p133
sg12
V./data/mesAlbums/Circuit/minis/DSC_0127.jpg
p134
sg14
S'Circuit Gilles Villeneuve 025'
p135
sba(iPhoto
Photo
p136
(dp137
g5
S'DSC_0128.jpg'
p138
sg12
V./data/mesAlbums/Circuit/minis/DSC_0128.jpg
p139
sg14
S'Circuit Gilles Villeneuve 026'
p140
sba(iPhoto
Photo
p141
(dp142
g5
S'DSC_0131.jpg'
p143
sg12
V./data/mesAlbums/Circuit/minis/DSC_0131.jpg
p144
sg14
S'Circuit Gilles Villeneuve 027'
p145
sba(iPhoto
Photo
p146
(dp147
g5
S'DSC_0132.jpg'
p148
sg12
V./data/mesAlbums/Circuit/minis/DSC_0132.jpg
p149
sg14
S'Circuit Gilles Villeneuve 028'
p150
sba(iPhoto
Photo
p151
(dp152
g5
S'DSC_0133.jpg'
p153
sg12
V./data/mesAlbums/Circuit/minis/DSC_0133.jpg
p154
sg14
S'Circuit Gilles Villeneuve 029'
p155
sba(iPhoto
Photo
p156
(dp157
g5
S'DSC_0134.jpg'
p158
sg12
V./data/mesAlbums/Circuit/minis/DSC_0134.jpg
p159
sg14
S'Circuit Gilles Villeneuve 030'
p160
sba(iPhoto
Photo
p161
(dp162
g5
S'DSC_0139.jpg'
p163
sg12
V./data/mesAlbums/Circuit/minis/DSC_0139.jpg
p164
sg14
S'Circuit Gilles Villeneuve 031'
p165
sbasS'listGrande'
p166
(lp167
(iPhoto
Photo
p168
(dp169
g5
S'DSC_0088.jpg'
p170
sg12
V./data/mesAlbums/Circuit/grandes/DSC_0088.jpg
p171
sg14
g15
sba(iPhoto
Photo
p172
(dp173
g5
S'DSC_0089.jpg'
p174
sg12
V./data/mesAlbums/Circuit/grandes/DSC_0089.jpg
p175
sg14
g20
sba(iPhoto
Photo
p176
(dp177
g5
S'DSC_0092.jpg'
p178
sg12
V./data/mesAlbums/Circuit/grandes/DSC_0092.jpg
p179
sg14
g25
sba(iPhoto
Photo
p180
(dp181
g5
S'DSC_0095.jpg'
p182
sg12
V./data/mesAlbums/Circuit/grandes/DSC_0095.jpg
p183
sg14
g30
sba(iPhoto
Photo
p184
(dp185
g5
S'DSC_0099.jpg'
p186
sg12
V./data/mesAlbums/Circuit/grandes/DSC_0099.jpg
p187
sg14
g35
sba(iPhoto
Photo
p188
(dp189
g5
S'DSC_0101.jpg'
p190
sg12
V./data/mesAlbums/Circuit/grandes/DSC_0101.jpg
p191
sg14
g40
sba(iPhoto
Photo
p192
(dp193
g5
S'DSC_0102.jpg'
p194
sg12
V./data/mesAlbums/Circuit/grandes/DSC_0102.jpg
p195
sg14
g45
sba(iPhoto
Photo
p196
(dp197
g5
S'DSC_0103.jpg'
p198
sg12
V./data/mesAlbums/Circuit/grandes/DSC_0103.jpg
p199
sg14
g50
sba(iPhoto
Photo
p200
(dp201
g5
S'DSC_0105.jpg'
p202
sg12
V./data/mesAlbums/Circuit/grandes/DSC_0105.jpg
p203
sg14
g55
sba(iPhoto
Photo
p204
(dp205
g5
S'DSC_0106.jpg'
p206
sg12
V./data/mesAlbums/Circuit/grandes/DSC_0106.jpg
p207
sg14
g60
sba(iPhoto
Photo
p208
(dp209
g5
S'DSC_0107.jpg'
p210
sg12
V./data/mesAlbums/Circuit/grandes/DSC_0107.jpg
p211
sg14
g65
sba(iPhoto
Photo
p212
(dp213
g5
S'DSC_0110.jpg'
p214
sg12
V./data/mesAlbums/Circuit/grandes/DSC_0110.jpg
p215
sg14
g70
sba(iPhoto
Photo
p216
(dp217
g5
S'DSC_0111.jpg'
p218
sg12
V./data/mesAlbums/Circuit/grandes/DSC_0111.jpg
p219
sg14
g75
sba(iPhoto
Photo
p220
(dp221
g5
S'DSC_0113.jpg'
p222
sg12
V./data/mesAlbums/Circuit/grandes/DSC_0113.jpg
p223
sg14
g80
sba(iPhoto
Photo
p224
(dp225
g5
S'DSC_0115.jpg'
p226
sg12
V./data/mesAlbums/Circuit/grandes/DSC_0115.jpg
p227
sg14
g85
sba(iPhoto
Photo
p228
(dp229
g5
S'DSC_0116.jpg'
p230
sg12
V./data/mesAlbums/Circuit/grandes/DSC_0116.jpg
p231
sg14
g90
sba(iPhoto
Photo
p232
(dp233
g5
S'DSC_0117.jpg'
p234
sg12
V./data/mesAlbums/Circuit/grandes/DSC_0117.jpg
p235
sg14
g95
sba(iPhoto
Photo
p236
(dp237
g5
S'DSC_0118.jpg'
p238
sg12
V./data/mesAlbums/Circuit/grandes/DSC_0118.jpg
p239
sg14
g100
sba(iPhoto
Photo
p240
(dp241
g5
S'DSC_0119.jpg'
p242
sg12
V./data/mesAlbums/Circuit/grandes/DSC_0119.jpg
p243
sg14
g105
sba(iPhoto
Photo
p244
(dp245
g5
S'DSC_0120.jpg'
p246
sg12
V./data/mesAlbums/Circuit/grandes/DSC_0120.jpg
p247
sg14
g110
sba(iPhoto
Photo
p248
(dp249
g5
S'DSC_0121.jpg'
p250
sg12
V./data/mesAlbums/Circuit/grandes/DSC_0121.jpg
p251
sg14
g115
sba(iPhoto
Photo
p252
(dp253
g5
S'DSC_0122.jpg'
p254
sg12
V./data/mesAlbums/Circuit/grandes/DSC_0122.jpg
p255
sg14
g120
sba(iPhoto
Photo
p256
(dp257
g5
S'DSC_0124.jpg'
p258
sg12
V./data/mesAlbums/Circuit/grandes/DSC_0124.jpg
p259
sg14
g125
sba(iPhoto
Photo
p260
(dp261
g5
S'DSC_0125.jpg'
p262
sg12
V./data/mesAlbums/Circuit/grandes/DSC_0125.jpg
p263
sg14
g130
sba(iPhoto
Photo
p264
(dp265
g5
S'DSC_0127.jpg'
p266
sg12
V./data/mesAlbums/Circuit/grandes/DSC_0127.jpg
p267
sg14
g135
sba(iPhoto
Photo
p268
(dp269
g5
S'DSC_0128.jpg'
p270
sg12
V./data/mesAlbums/Circuit/grandes/DSC_0128.jpg
p271
sg14
g140
sba(iPhoto
Photo
p272
(dp273
g5
S'DSC_0131.jpg'
p274
sg12
V./data/mesAlbums/Circuit/grandes/DSC_0131.jpg
p275
sg14
g145
sba(iPhoto
Photo
p276
(dp277
g5
S'DSC_0132.jpg'
p278
sg12
V./data/mesAlbums/Circuit/grandes/DSC_0132.jpg
p279
sg14
g150
sba(iPhoto
Photo
p280
(dp281
g5
S'DSC_0133.jpg'
p282
sg12
V./data/mesAlbums/Circuit/grandes/DSC_0133.jpg
p283
sg14
g155
sba(iPhoto
Photo
p284
(dp285
g5
S'DSC_0134.jpg'
p286
sg12
V./data/mesAlbums/Circuit/grandes/DSC_0134.jpg
p287
sg14
g160
sba(iPhoto
Photo
p288
(dp289
g5
S'DSC_0139.jpg'
p290
sg12
V./data/mesAlbums/Circuit/grandes/DSC_0139.jpg
p291
sg14
g165
sbasba(iAlbum
Album
p292
(dp293
g3
Vhttp://picasaweb.google.com/alex.bourany.64/MontrealNoirBlanc#
p294
sg5
VMontreal
p295
sg7
(lp296
(iPhoto
Photo
p297
(dp298
g5
S'DSC_0002.jpg'
p299
sg12
V./data/mesAlbums/Montreal/minis/DSC_0002.jpg
p300
sg14
S'Montr\xc3\xa9al Noir &amp; Blanc 01'
p301
sba(iPhoto
Photo
p302
(dp303
g5
S'DSC_0008.jpg'
p304
sg12
V./data/mesAlbums/Montreal/minis/DSC_0008.jpg
p305
sg14
S'Montr\xc3\xa9al Noir &amp; Blanc 02'
p306
sba(iPhoto
Photo
p307
(dp308
g5
S'DSC_0009.jpg'
p309
sg12
V./data/mesAlbums/Montreal/minis/DSC_0009.jpg
p310
sg14
S'Montr\xc3\xa9al Noir &amp; Blanc 03'
p311
sba(iPhoto
Photo
p312
(dp313
g5
S'DSC_0012.jpg'
p314
sg12
V./data/mesAlbums/Montreal/minis/DSC_0012.jpg
p315
sg14
S'Montr\xc3\xa9al Noir &amp; Blanc 04'
p316
sba(iPhoto
Photo
p317
(dp318
g5
S'DSC_0014.jpg'
p319
sg12
V./data/mesAlbums/Montreal/minis/DSC_0014.jpg
p320
sg14
S'Montr\xc3\xa9al Noir &amp; Blanc 05'
p321
sba(iPhoto
Photo
p322
(dp323
g5
S'DSC_0020.jpg'
p324
sg12
V./data/mesAlbums/Montreal/minis/DSC_0020.jpg
p325
sg14
S'Montr\xc3\xa9al Noir &amp; Blanc 06'
p326
sba(iPhoto
Photo
p327
(dp328
g5
S'DSC_0034.jpg'
p329
sg12
V./data/mesAlbums/Montreal/minis/DSC_0034.jpg
p330
sg14
S'Montr\xc3\xa9al Noir &amp; Blanc 07'
p331
sba(iPhoto
Photo
p332
(dp333
g5
S'DSC_0038.jpg'
p334
sg12
V./data/mesAlbums/Montreal/minis/DSC_0038.jpg
p335
sg14
S'Montr\xc3\xa9al Noir &amp; Blanc 08'
p336
sba(iPhoto
Photo
p337
(dp338
g5
S'DSC_0040.jpg'
p339
sg12
V./data/mesAlbums/Montreal/minis/DSC_0040.jpg
p340
sg14
S'Montr\xc3\xa9al Noir &amp; Blanc 09'
p341
sba(iPhoto
Photo
p342
(dp343
g5
S'DSC_0041.jpg'
p344
sg12
V./data/mesAlbums/Montreal/minis/DSC_0041.jpg
p345
sg14
S'Montr\xc3\xa9al Noir &amp; Blanc 10'
p346
sba(iPhoto
Photo
p347
(dp348
g5
S'DSC_0047.jpg'
p349
sg12
V./data/mesAlbums/Montreal/minis/DSC_0047.jpg
p350
sg14
S'Montr\xc3\xa9al Noir &amp; Blanc 11'
p351
sba(iPhoto
Photo
p352
(dp353
g5
S'DSC_0048.jpg'
p354
sg12
V./data/mesAlbums/Montreal/minis/DSC_0048.jpg
p355
sg14
S'Montr\xc3\xa9al Noir &amp; Blanc 12'
p356
sba(iPhoto
Photo
p357
(dp358
g5
S'DSC_0049.jpg'
p359
sg12
V./data/mesAlbums/Montreal/minis/DSC_0049.jpg
p360
sg14
S'Montr\xc3\xa9al Noir &amp; Blanc 13'
p361
sba(iPhoto
Photo
p362
(dp363
g5
S'DSC_0053.jpg'
p364
sg12
V./data/mesAlbums/Montreal/minis/DSC_0053.jpg
p365
sg14
S'Montr\xc3\xa9al Noir &amp; Blanc 14'
p366
sba(iPhoto
Photo
p367
(dp368
g5
S'DSC_0055.jpg'
p369
sg12
V./data/mesAlbums/Montreal/minis/DSC_0055.jpg
p370
sg14
S'Montr\xc3\xa9al Noir &amp; Blanc 15'
p371
sba(iPhoto
Photo
p372
(dp373
g5
S'DSC_0023.jpg'
p374
sg12
V./data/mesAlbums/Montreal/minis/DSC_0023.jpg
p375
sg14
S'Montr\xc3\xa9al Noir &amp; Blanc 16'
p376
sba(iPhoto
Photo
p377
(dp378
g5
S'DSC_0024.jpg'
p379
sg12
V./data/mesAlbums/Montreal/minis/DSC_0024.jpg
p380
sg14
S'Montr\xc3\xa9al Noir &amp; Blanc 17'
p381
sba(iPhoto
Photo
p382
(dp383
g5
S'DSC_0140.jpg'
p384
sg12
V./data/mesAlbums/Montreal/minis/DSC_0140.jpg
p385
sg14
S'Montr\xc3\xa9al Noir &amp; Blanc 18'
p386
sba(iPhoto
Photo
p387
(dp388
g5
S'DSC_0142.jpg'
p389
sg12
V./data/mesAlbums/Montreal/minis/DSC_0142.jpg
p390
sg14
S'Montr\xc3\xa9al Noir &amp; Blanc 19'
p391
sba(iPhoto
Photo
p392
(dp393
g5
S'DSC_0163.jpg'
p394
sg12
V./data/mesAlbums/Montreal/minis/DSC_0163.jpg
p395
sg14
S'Montr\xc3\xa9al Noir &amp; Blanc 20'
p396
sbasg166
(lp397
(iPhoto
Photo
p398
(dp399
g5
S'DSC_0002.jpg'
p400
sg12
V./data/mesAlbums/Montreal/grandes/DSC_0002.jpg
p401
sg14
g301
sba(iPhoto
Photo
p402
(dp403
g5
S'DSC_0008.jpg'
p404
sg12
V./data/mesAlbums/Montreal/grandes/DSC_0008.jpg
p405
sg14
g306
sba(iPhoto
Photo
p406
(dp407
g5
S'DSC_0009.jpg'
p408
sg12
V./data/mesAlbums/Montreal/grandes/DSC_0009.jpg
p409
sg14
g311
sba(iPhoto
Photo
p410
(dp411
g5
S'DSC_0012.jpg'
p412
sg12
V./data/mesAlbums/Montreal/grandes/DSC_0012.jpg
p413
sg14
g316
sba(iPhoto
Photo
p414
(dp415
g5
S'DSC_0014.jpg'
p416
sg12
V./data/mesAlbums/Montreal/grandes/DSC_0014.jpg
p417
sg14
g321
sba(iPhoto
Photo
p418
(dp419
g5
S'DSC_0020.jpg'
p420
sg12
V./data/mesAlbums/Montreal/grandes/DSC_0020.jpg
p421
sg14
g326
sba(iPhoto
Photo
p422
(dp423
g5
S'DSC_0034.jpg'
p424
sg12
V./data/mesAlbums/Montreal/grandes/DSC_0034.jpg
p425
sg14
g331
sba(iPhoto
Photo
p426
(dp427
g5
S'DSC_0038.jpg'
p428
sg12
V./data/mesAlbums/Montreal/grandes/DSC_0038.jpg
p429
sg14
g336
sba(iPhoto
Photo
p430
(dp431
g5
S'DSC_0040.jpg'
p432
sg12
V./data/mesAlbums/Montreal/grandes/DSC_0040.jpg
p433
sg14
g341
sba(iPhoto
Photo
p434
(dp435
g5
S'DSC_0041.jpg'
p436
sg12
V./data/mesAlbums/Montreal/grandes/DSC_0041.jpg
p437
sg14
g346
sba(iPhoto
Photo
p438
(dp439
g5
S'DSC_0047.jpg'
p440
sg12
V./data/mesAlbums/Montreal/grandes/DSC_0047.jpg
p441
sg14
g351
sba(iPhoto
Photo
p442
(dp443
g5
S'DSC_0048.jpg'
p444
sg12
V./data/mesAlbums/Montreal/grandes/DSC_0048.jpg
p445
sg14
g356
sba(iPhoto
Photo
p446
(dp447
g5
S'DSC_0049.jpg'
p448
sg12
V./data/mesAlbums/Montreal/grandes/DSC_0049.jpg
p449
sg14
g361
sba(iPhoto
Photo
p450
(dp451
g5
S'DSC_0053.jpg'
p452
sg12
V./data/mesAlbums/Montreal/grandes/DSC_0053.jpg
p453
sg14
g366
sba(iPhoto
Photo
p454
(dp455
g5
S'DSC_0055.jpg'
p456
sg12
V./data/mesAlbums/Montreal/grandes/DSC_0055.jpg
p457
sg14
g371
sba(iPhoto
Photo
p458
(dp459
g5
S'DSC_0023.jpg'
p460
sg12
V./data/mesAlbums/Montreal/grandes/DSC_0023.jpg
p461
sg14
g376
sba(iPhoto
Photo
p462
(dp463
g5
S'DSC_0024.jpg'
p464
sg12
V./data/mesAlbums/Montreal/grandes/DSC_0024.jpg
p465
sg14
g381
sba(iPhoto
Photo
p466
(dp467
g5
S'DSC_0140.jpg'
p468
sg12
V./data/mesAlbums/Montreal/grandes/DSC_0140.jpg
p469
sg14
g386
sba(iPhoto
Photo
p470
(dp471
g5
S'DSC_0142.jpg'
p472
sg12
V./data/mesAlbums/Montreal/grandes/DSC_0142.jpg
p473
sg14
g391
sba(iPhoto
Photo
p474
(dp475
g5
S'DSC_0163.jpg'
p476
sg12
V./data/mesAlbums/Montreal/grandes/DSC_0163.jpg
p477
sg14
g396
sbasba(iAlbum
Album
p478
(dp479
g3
Vhttp://picasaweb.google.com/alex.bourany.64/Alex#
p480
sg5
VAlex !!!
p481
sg7
(lp482
(iPhoto
Photo
p483
(dp484
g5
S'DSC_0007.jpg'
p485
sg12
V./data/mesAlbums/Alex !!!/minis/DSC_0007.jpg
p486
sg14
S'Alex 001'
p487
sba(iPhoto
Photo
p488
(dp489
g5
S'DSC_0014.jpg'
p490
sg12
V./data/mesAlbums/Alex !!!/minis/DSC_0014.jpg
p491
sg14
S'Alex 002'
p492
sba(iPhoto
Photo
p493
(dp494
g5
S'DSC_0016.jpg'
p495
sg12
V./data/mesAlbums/Alex !!!/minis/DSC_0016.jpg
p496
sg14
S'Alex 003'
p497
sbasg166
(lp498
(iPhoto
Photo
p499
(dp500
g5
S'DSC_0007.jpg'
p501
sg12
V./data/mesAlbums/Alex !!!/grandes/DSC_0007.jpg
p502
sg14
g487
sba(iPhoto
Photo
p503
(dp504
g5
S'DSC_0014.jpg'
p505
sg12
V./data/mesAlbums/Alex !!!/grandes/DSC_0014.jpg
p506
sg14
g492
sba(iPhoto
Photo
p507
(dp508
g5
S'DSC_0016.jpg'
p509
sg12
V./data/mesAlbums/Alex !!!/grandes/DSC_0016.jpg
p510
sg14
g497
sbasba.