(lp0
(iAlbum
Album
p1
(dp2
S'url'
p3
Vhttp://picasaweb.google.com/GillesAthier/MontAigoual#
p4
sS'nom'
p5
VMont-Aigoual
p6
sS'listMiniature'
p7
(lp8
(iPhoto
Photo
p9
(dp10
g5
S'MtAigoual20100804_04.jpg'
p11
sS'chemin'
p12
V./data/mesAlbums/Mont-Aigoual/minis/MtAigoual20100804_04.jpg
p13
sS'titre'
p14
S'Cevennes - Randonn\xc3\xa9e au Mt-Aigual<'
p15
sba(iPhoto
Photo
p16
(dp17
g5
S'MtAigoual20100804_05.jpg'
p18
sg12
V./data/mesAlbums/Mont-Aigoual/minis/MtAigoual20100804_05.jpg
p19
sg14
S'Cevennes - Randonn\xc3\xa9e au Mt-Aigual<'
p20
sba(iPhoto
Photo
p21
(dp22
g5
S'MtAigoual20100804_08.jpg'
p23
sg12
V./data/mesAlbums/Mont-Aigoual/minis/MtAigoual20100804_08.jpg
p24
sg14
S'Cevennes - Randonn\xc3\xa9e au Mt-Aigual<'
p25
sba(iPhoto
Photo
p26
(dp27
g5
S'MtAigoual20100804_10.jpg'
p28
sg12
V./data/mesAlbums/Mont-Aigoual/minis/MtAigoual20100804_10.jpg
p29
sg14
S'Cevennes - Randonn\xc3\xa9e au Mt-Aigual<'
p30
sba(iPhoto
Photo
p31
(dp32
g5
S'MtAigoual20100804_13.jpg'
p33
sg12
V./data/mesAlbums/Mont-Aigoual/minis/MtAigoual20100804_13.jpg
p34
sg14
S'Cevennes - Randonn\xc3\xa9e au Mt-Aigual<'
p35
sba(iPhoto
Photo
p36
(dp37
g5
S'MtAigoual20100804_14.jpg'
p38
sg12
V./data/mesAlbums/Mont-Aigoual/minis/MtAigoual20100804_14.jpg
p39
sg14
S'Cevennes - Randonn\xc3\xa9e au Mt-Aigual<'
p40
sba(iPhoto
Photo
p41
(dp42
g5
S'MtAigoual20100804_16.jpg'
p43
sg12
V./data/mesAlbums/Mont-Aigoual/minis/MtAigoual20100804_16.jpg
p44
sg14
S'Cevennes - Randonn\xc3\xa9e au Mt-Aigual<'
p45
sba(iPhoto
Photo
p46
(dp47
g5
S'MtAigoual20100804_18.jpg'
p48
sg12
V./data/mesAlbums/Mont-Aigoual/minis/MtAigoual20100804_18.jpg
p49
sg14
S'Cevennes - Randonn\xc3\xa9e au Mt-Aigual<'
p50
sba(iPhoto
Photo
p51
(dp52
g5
S'MtAigoual20100804_19.jpg'
p53
sg12
V./data/mesAlbums/Mont-Aigoual/minis/MtAigoual20100804_19.jpg
p54
sg14
S'Cevennes - Randonn\xc3\xa9e au Mt-Aigual<'
p55
sbasS'listGrande'
p56
(lp57
(iPhoto
Photo
p58
(dp59
g5
S'MtAigoual20100804_04.jpg'
p60
sg12
V./data/mesAlbums/Mont-Aigoual/grandes/MtAigoual20100804_04.jpg
p61
sg14
g15
sba(iPhoto
Photo
p62
(dp63
g5
S'MtAigoual20100804_05.jpg'
p64
sg12
V./data/mesAlbums/Mont-Aigoual/grandes/MtAigoual20100804_05.jpg
p65
sg14
g20
sba(iPhoto
Photo
p66
(dp67
g5
S'MtAigoual20100804_08.jpg'
p68
sg12
V./data/mesAlbums/Mont-Aigoual/grandes/MtAigoual20100804_08.jpg
p69
sg14
g25
sba(iPhoto
Photo
p70
(dp71
g5
S'MtAigoual20100804_10.jpg'
p72
sg12
V./data/mesAlbums/Mont-Aigoual/grandes/MtAigoual20100804_10.jpg
p73
sg14
g30
sba(iPhoto
Photo
p74
(dp75
g5
S'MtAigoual20100804_13.jpg'
p76
sg12
V./data/mesAlbums/Mont-Aigoual/grandes/MtAigoual20100804_13.jpg
p77
sg14
g35
sba(iPhoto
Photo
p78
(dp79
g5
S'MtAigoual20100804_14.jpg'
p80
sg12
V./data/mesAlbums/Mont-Aigoual/grandes/MtAigoual20100804_14.jpg
p81
sg14
g40
sba(iPhoto
Photo
p82
(dp83
g5
S'MtAigoual20100804_16.jpg'
p84
sg12
V./data/mesAlbums/Mont-Aigoual/grandes/MtAigoual20100804_16.jpg
p85
sg14
g45
sba(iPhoto
Photo
p86
(dp87
g5
S'MtAigoual20100804_18.jpg'
p88
sg12
V./data/mesAlbums/Mont-Aigoual/grandes/MtAigoual20100804_18.jpg
p89
sg14
g50
sba(iPhoto
Photo
p90
(dp91
g5
S'MtAigoual20100804_19.jpg'
p92
sg12
V./data/mesAlbums/Mont-Aigoual/grandes/MtAigoual20100804_19.jpg
p93
sg14
g55
sbasba(iAlbum
Album
p94
(dp95
S'url'
p96
Vhttp://picasaweb.google.com/martakubacka172/PosrodKwiatowTrawWszelkichIZdzbeGorzkiejMiety#
p97
sS'nom'
p98
VPapillon
p99
sS'listMiniature'
p100
(lp101
(iPhoto
Photo
p102
(dp103
g98
S'2010_0814_163224AA.JPG'
p104
sS'chemin'
p105
V./data/mesAlbums/Papillon/minis/2010_0814_163224AA.JPG
p106
sS'titre'
p107
S'Male\xc5\x84ki modraszek nausitous, na kwiatostanie krwi\xc5\x9bci\xc4\x85ga lekarskiego.\nModraszek obj\xc4\x99ty jest w Polsce ochron\xc4\x85 \xc5\x9bcis\xc5\x82\xc4\x85.<'
p108
sba(iPhoto
Photo
p109
(dp110
g98
S'2010_0719_163830AA.JPG'
p111
sg105
V./data/mesAlbums/Papillon/minis/2010_0719_163830AA.JPG
p112
sg107
S'Rusa\xc5\x82ka pawik<'
p113
sba(iPhoto
Photo
p114
(dp115
g98
S'2010_0719_154409AA.JPG'
p116
sg105
V./data/mesAlbums/Papillon/minis/2010_0719_154409AA.JPG
p117
sg107
S'Rusa\xc5\x82ka pawik w cyniowej sto\xc5\x82\xc3\xb3wce<'
p118
sba(iPhoto
Photo
p119
(dp120
g98
S'2010_0921_150532AA.JPG'
p121
sg105
V./data/mesAlbums/Papillon/minis/2010_0921_150532AA.JPG
p122
sg107
S'<'
p123
sba(iPhoto
Photo
p124
(dp125
g98
S'2010_0717_160829AAAB.jpg'
p126
sg105
V./data/mesAlbums/Papillon/minis/2010_0717_160829AAAB.jpg
p127
sg107
S'Na purpurowej je\xc5\xbc\xc3\xb3wce w naszym ogrodzie<'
p128
sba(iPhoto
Photo
p129
(dp130
g98
S'2010_0715_154724AAAA.jpg'
p131
sg105
V./data/mesAlbums/Papillon/minis/2010_0715_154724AAAA.jpg
p132
sg107
S'Pa\xc5\xba kr\xc3\xb3lowej;\nNiestety nie mia\xc5\x82 ochoty roz\xc5\x82o\xc5\xbcy\xc4\x87 swoich pi\xc4\x99knych skrzyde\xc5\x82 w ca\xc5\x82ej okaza\xc5\x82o\xc5\x9bci...<'
p133
sba(iPhoto
Photo
p134
(dp135
g98
S'2009_0808_172635AA.JPG'
p136
sg105
V./data/mesAlbums/Papillon/minis/2009_0808_172635AA.JPG
p137
sg107
S'Po\xc5\x82udnica osetnik<'
p138
sba(iPhoto
Photo
p139
(dp140
g98
S'2010_0705_134826AAz.jpg'
p141
sg105
V./data/mesAlbums/Papillon/minis/2010_0705_134826AAz.jpg
p142
sg107
S'Rusa\xc5\x82ka admira\xc5\x82<'
p143
sba(iPhoto
Photo
p144
(dp145
g98
S'2010_0910_134612AA.JPG'
p146
sg105
V./data/mesAlbums/Papillon/minis/2010_0910_134612AA.JPG
p147
sg107
g123
sba(iPhoto
Photo
p148
(dp149
g98
S'2009_0828_135729AAz.jpg'
p150
sg105
V./data/mesAlbums/Papillon/minis/2009_0828_135729AAz.jpg
p151
sg107
S'Rusa\xc5\x82ka admira\xc5\x82<'
p152
sba(iPhoto
Photo
p153
(dp154
g98
S'2010_0910_134635AA.JPG'
p155
sg105
V./data/mesAlbums/Papillon/minis/2010_0910_134635AA.JPG
p156
sg107
g123
sba(iPhoto
Photo
p157
(dp158
g98
S'2010_1002_125235AAA.jpg'
p159
sg105
V./data/mesAlbums/Papillon/minis/2010_1002_125235AAA.jpg
p160
sg107
S'Rusa\xc5\x82ki: admira\xc5\x82 i pawik<'
p161
sba(iPhoto
Photo
p162
(dp163
g98
S'2010_0921_135203AA.JPG'
p164
sg105
V./data/mesAlbums/Papillon/minis/2010_0921_135203AA.JPG
p165
sg107
g123
sba(iPhoto
Photo
p166
(dp167
g98
S'2010_0810_144421AA.JPG'
p168
sg105
V./data/mesAlbums/Papillon/minis/2010_0810_144421AA.JPG
p169
sg107
S'Rusa\xc5\x82ka pokrzywnik<'
p170
sba(iPhoto
Photo
p171
(dp172
g98
S'2010_0921_140244AA.JPG'
p173
sg105
V./data/mesAlbums/Papillon/minis/2010_0921_140244AA.JPG
p174
sg107
g123
sba(iPhoto
Photo
p175
(dp176
g98
S'2010_0721_121335AAA.jpg'
p177
sg105
V./data/mesAlbums/Papillon/minis/2010_0721_121335AAA.jpg
p178
sg107
S'Rusa\xc5\x82ka osetnik<'
p179
sba(iPhoto
Photo
p180
(dp181
g98
S'2010_0806_120206AAc.jpg'
p182
sg105
V./data/mesAlbums/Papillon/minis/2010_0806_120206AAc.jpg
p183
sg107
S'Kra\xc5\x9bnik na floksie<'
p184
sba(iPhoto
Photo
p185
(dp186
g98
S'2010_0708_174044AAa.jpg'
p187
sg105
V./data/mesAlbums/Papillon/minis/2010_0708_174044AAa.jpg
p188
sg107
S'Polowiec szachownica<'
p189
sba(iPhoto
Photo
p190
(dp191
g98
S'2010_0921_150536AAA.jpg'
p192
sg105
V./data/mesAlbums/Papillon/minis/2010_0921_150536AAA.jpg
p193
sg107
g123
sba(iPhoto
Photo
p194
(dp195
g98
S'2010_0705_160921AAz.jpg'
p196
sg105
V./data/mesAlbums/Papillon/minis/2010_0705_160921AAz.jpg
p197
sg107
S'Rusa\xc5\x82ka pawik<'
p198
sba(iPhoto
Photo
p199
(dp200
g98
S'2010_0911_154626AAA.jpg'
p201
sg105
V./data/mesAlbums/Papillon/minis/2010_0911_154626AAA.jpg
p202
sg107
S'Rusa\xc5\x82ka ceik<'
p203
sba(iPhoto
Photo
p204
(dp205
g98
S'P4031285.JPG'
p206
sg105
V./data/mesAlbums/Papillon/minis/P4031285.JPG
p207
sg107
S'Rusa\xc5\x82ka ceik<'
p208
sba(iPhoto
Photo
p209
(dp210
g98
S'2010_0614_182602AA.JPG'
p211
sg105
V./data/mesAlbums/Papillon/minis/2010_0614_182602AA.JPG
p212
sg107
S'Modraszek argus<'
p213
sba(iPhoto
Photo
p214
(dp215
g98
S'2010_0710_112553AAA.jpg'
p216
sg105
V./data/mesAlbums/Papillon/minis/2010_0710_112553AAA.jpg
p217
sg107
S'Czerwo\xc5\x84czyk<'
p218
sba(iPhoto
Photo
p219
(dp220
g98
S'2010_0621_134854AA.JPG'
p221
sg105
V./data/mesAlbums/Papillon/minis/2010_0621_134854AA.JPG
p222
sg107
S'Strz\xc4\x99potek ruczajnik<'
p223
sba(iPhoto
Photo
p224
(dp225
g98
S'2010_0701_193520AA0.jpg'
p226
sg105
V./data/mesAlbums/Papillon/minis/2010_0701_193520AA0.jpg
p227
sg107
S'strz\xc4\x99potek ruczajnik<'
p228
sba(iPhoto
Photo
p229
(dp230
g98
S'2010_0701_193626AA0.jpg'
p231
sg105
V./data/mesAlbums/Papillon/minis/2010_0701_193626AA0.jpg
p232
sg107
S'Strz\xc4\x99potek ruczajnik<'
p233
sba(iPhoto
Photo
p234
(dp235
g98
S'2010_0708_191038AA.JPG'
p236
sg105
V./data/mesAlbums/Papillon/minis/2010_0708_191038AA.JPG
p237
sg107
S'Przestrojnik trawnik<'
p238
sba(iPhoto
Photo
p239
(dp240
g98
S'2010_0923_154723ABA.jpg'
p241
sg105
V./data/mesAlbums/Papillon/minis/2010_0923_154723ABA.jpg
p242
sg107
g123
sba(iPhoto
Photo
p243
(dp244
g98
S'2010_0703_105914AA.JPG'
p245
sg105
V./data/mesAlbums/Papillon/minis/2010_0703_105914AA.JPG
p246
sg107
S'Latolistek cytrynek<'
p247
sba(iPhoto
Photo
p248
(dp249
g98
S'2010_0921_140201AA.JPG'
p250
sg105
V./data/mesAlbums/Papillon/minis/2010_0921_140201AA.JPG
p251
sg107
g123
sba(iPhoto
Photo
p252
(dp253
g98
S'2010_0708_175409A0A.jpg'
p254
sg105
V./data/mesAlbums/Papillon/minis/2010_0708_175409A0A.jpg
p255
sg107
S'Szlaczko\xc5\x84 sylwetnik<'
p256
sba(iPhoto
Photo
p257
(dp258
g98
S'2010_0921_140540AAA.jpg'
p259
sg105
V./data/mesAlbums/Papillon/minis/2010_0921_140540AAA.jpg
p260
sg107
g123
sba(iPhoto
Photo
p261
(dp262
g98
S'2010_0708_191446AAAA.jpg'
p263
sg105
V./data/mesAlbums/Papillon/minis/2010_0708_191446AAAA.jpg
p264
sg107
S'Wojsi\xc5\x82ka<'
p265
sba(iPhoto
Photo
p266
(dp267
g98
S'2010_0914_134143AAA.jpg'
p268
sg105
V./data/mesAlbums/Papillon/minis/2010_0914_134143AAA.jpg
p269
sg107
g123
sba(iPhoto
Photo
p270
(dp271
g98
S'2010_0622_185742AAc0.jpg'
p272
sg105
V./data/mesAlbums/Papillon/minis/2010_0622_185742AAc0.jpg
p273
sg107
S'pi\xc3\xb3rolotek snie\xc5\xbcynka (fot. bardzo poruszone, ale letni wiaterek niemi\xc5\x82osiernie targa\xc5\x82 jej male\xc5\x84kimi, pi\xc3\xb3rkowymi skrzydelkami...)<'
p274
sba(iPhoto
Photo
p275
(dp276
g98
S'2010_0921_150530AA.JPG'
p277
sg105
V./data/mesAlbums/Papillon/minis/2010_0921_150530AA.JPG
p278
sg107
g123
sba(iPhoto
Photo
p279
(dp280
g98
S'2010_0615_131358AA0.jpg'
p281
sg105
V./data/mesAlbums/Papillon/minis/2010_0615_131358AA0.jpg
p282
sg107
S'Omacnica<'
p283
sba(iPhoto
Photo
p284
(dp285
g98
S'2010_0621_144615AA.JPG'
p286
sg105
V./data/mesAlbums/Papillon/minis/2010_0621_144615AA.JPG
p287
sg107
S'Omacnica<'
p288
sba(iPhoto
Photo
p289
(dp290
g98
S'2010_0728_151027AAA.jpg'
p291
sg105
V./data/mesAlbums/Papillon/minis/2010_0728_151027AAA.jpg
p292
sg107
S'Poproch pylinkowiak - samczyk<'
p293
sba(iPhoto
Photo
p294
(dp295
g98
S'P8040232A.jpg'
p296
sg105
V./data/mesAlbums/Papillon/minis/P8040232A.jpg
p297
sg107
S'Poproch pylinkowiak - samiczka<'
p298
sba(iPhoto
Photo
p299
(dp300
g98
S'2010_0907_125723AAA1.jpg'
p301
sg105
V./data/mesAlbums/Papillon/minis/2010_0907_125723AAA1.jpg
p302
sg107
g123
sba(iPhoto
Photo
p303
(dp304
g98
S'2010_0801_124040AAA.jpg'
p305
sg105
V./data/mesAlbums/Papillon/minis/2010_0801_124040AAA.jpg
p306
sg107
S'Liter\xc3\xb3wka jarzyn\xc3\xb3wka<'
p307
sba(iPhoto
Photo
p308
(dp309
g98
S'2010_0806_145935AA.JPG'
p310
sg105
V./data/mesAlbums/Papillon/minis/2010_0806_145935AA.JPG
p311
sg107
S'Pazik brzozowiec<'
p312
sba(iPhoto
Photo
p313
(dp314
g98
S'2010_0921_135207AA.JPG'
p315
sg105
V./data/mesAlbums/Papillon/minis/2010_0921_135207AA.JPG
p316
sg107
g123
sba(iPhoto
Photo
p317
(dp318
g98
S'2010_0806_121223AA.JPG'
p319
sg105
V./data/mesAlbums/Papillon/minis/2010_0806_121223AA.JPG
p320
sg107
S'Modraszek<'
p321
sba(iPhoto
Photo
p322
(dp323
g98
S'2010_0806_131844AA.JPG'
p324
sg105
V./data/mesAlbums/Papillon/minis/2010_0806_131844AA.JPG
p325
sg107
S'Bielinek bytomkowiec<'
p326
sba(iPhoto
Photo
p327
(dp328
g98
S'2010_1007_141802AA1.jpg'
p329
sg105
V./data/mesAlbums/Papillon/minis/2010_1007_141802AA1.jpg
p330
sg107
g123
sba(iPhoto
Photo
p331
(dp332
g98
S'2010_0806_145759AA.JPG'
p333
sg105
V./data/mesAlbums/Papillon/minis/2010_0806_145759AA.JPG
p334
sg107
S'Pazik brzozowiec<'
p335
sba(iPhoto
Photo
p336
(dp337
g98
S'2010_0822_161655AAA.jpg'
p338
sg105
V./data/mesAlbums/Papillon/minis/2010_0822_161655AAA.jpg
p339
sg107
S'Furczak go\xc5\x82\xc4\x85bek<'
p340
sba(iPhoto
Photo
p341
(dp342
g98
S'2010_0822_161702AAA.jpg'
p343
sg105
V./data/mesAlbums/Papillon/minis/2010_0822_161702AAA.jpg
p344
sg107
S'Furczak go\xc5\x82\xc4\x85bek<'
p345
sbasS'listGrande'
p346
(lp347
(iPhoto
Photo
p348
(dp349
g98
S'2010_0814_163224AA.JPG'
p350
sg105
V./data/mesAlbums/Papillon/grandes/2010_0814_163224AA.JPG
p351
sg107
g108
sba(iPhoto
Photo
p352
(dp353
g98
S'2010_0719_163830AA.JPG'
p354
sg105
V./data/mesAlbums/Papillon/grandes/2010_0719_163830AA.JPG
p355
sg107
g113
sba(iPhoto
Photo
p356
(dp357
g98
S'2010_0719_154409AA.JPG'
p358
sg105
V./data/mesAlbums/Papillon/grandes/2010_0719_154409AA.JPG
p359
sg107
g118
sba(iPhoto
Photo
p360
(dp361
g98
S'2010_0921_150532AA.JPG'
p362
sg105
V./data/mesAlbums/Papillon/grandes/2010_0921_150532AA.JPG
p363
sg107
g123
sba(iPhoto
Photo
p364
(dp365
g98
S'2010_0717_160829AAAB.jpg'
p366
sg105
V./data/mesAlbums/Papillon/grandes/2010_0717_160829AAAB.jpg
p367
sg107
g128
sba(iPhoto
Photo
p368
(dp369
g98
S'2010_0715_154724AAAA.jpg'
p370
sg105
V./data/mesAlbums/Papillon/grandes/2010_0715_154724AAAA.jpg
p371
sg107
g133
sba(iPhoto
Photo
p372
(dp373
g98
S'2009_0808_172635AA.JPG'
p374
sg105
V./data/mesAlbums/Papillon/grandes/2009_0808_172635AA.JPG
p375
sg107
g138
sba(iPhoto
Photo
p376
(dp377
g98
S'2010_0705_134826AAz.jpg'
p378
sg105
V./data/mesAlbums/Papillon/grandes/2010_0705_134826AAz.jpg
p379
sg107
g143
sba(iPhoto
Photo
p380
(dp381
g98
S'2010_0910_134612AA.JPG'
p382
sg105
V./data/mesAlbums/Papillon/grandes/2010_0910_134612AA.JPG
p383
sg107
g123
sba(iPhoto
Photo
p384
(dp385
g98
S'2009_0828_135729AAz.jpg'
p386
sg105
V./data/mesAlbums/Papillon/grandes/2009_0828_135729AAz.jpg
p387
sg107
g152
sba(iPhoto
Photo
p388
(dp389
g98
S'2010_0910_134635AA.JPG'
p390
sg105
V./data/mesAlbums/Papillon/grandes/2010_0910_134635AA.JPG
p391
sg107
g123
sba(iPhoto
Photo
p392
(dp393
g98
S'2010_1002_125235AAA.jpg'
p394
sg105
V./data/mesAlbums/Papillon/grandes/2010_1002_125235AAA.jpg
p395
sg107
g161
sba(iPhoto
Photo
p396
(dp397
g98
S'2010_0921_135203AA.JPG'
p398
sg105
V./data/mesAlbums/Papillon/grandes/2010_0921_135203AA.JPG
p399
sg107
g123
sba(iPhoto
Photo
p400
(dp401
g98
S'2010_0810_144421AA.JPG'
p402
sg105
V./data/mesAlbums/Papillon/grandes/2010_0810_144421AA.JPG
p403
sg107
g170
sba(iPhoto
Photo
p404
(dp405
g98
S'2010_0921_140244AA.JPG'
p406
sg105
V./data/mesAlbums/Papillon/grandes/2010_0921_140244AA.JPG
p407
sg107
g123
sba(iPhoto
Photo
p408
(dp409
g98
S'2010_0721_121335AAA.jpg'
p410
sg105
V./data/mesAlbums/Papillon/grandes/2010_0721_121335AAA.jpg
p411
sg107
g179
sba(iPhoto
Photo
p412
(dp413
g98
S'2010_0806_120206AAc.jpg'
p414
sg105
V./data/mesAlbums/Papillon/grandes/2010_0806_120206AAc.jpg
p415
sg107
g184
sba(iPhoto
Photo
p416
(dp417
g98
S'2010_0708_174044AAa.jpg'
p418
sg105
V./data/mesAlbums/Papillon/grandes/2010_0708_174044AAa.jpg
p419
sg107
g189
sba(iPhoto
Photo
p420
(dp421
g98
S'2010_0921_150536AAA.jpg'
p422
sg105
V./data/mesAlbums/Papillon/grandes/2010_0921_150536AAA.jpg
p423
sg107
g123
sba(iPhoto
Photo
p424
(dp425
g98
S'2010_0705_160921AAz.jpg'
p426
sg105
V./data/mesAlbums/Papillon/grandes/2010_0705_160921AAz.jpg
p427
sg107
g198
sba(iPhoto
Photo
p428
(dp429
g98
S'2010_0911_154626AAA.jpg'
p430
sg105
V./data/mesAlbums/Papillon/grandes/2010_0911_154626AAA.jpg
p431
sg107
g203
sba(iPhoto
Photo
p432
(dp433
g98
S'P4031285.JPG'
p434
sg105
V./data/mesAlbums/Papillon/grandes/P4031285.JPG
p435
sg107
g208
sba(iPhoto
Photo
p436
(dp437
g98
S'2010_0614_182602AA.JPG'
p438
sg105
V./data/mesAlbums/Papillon/grandes/2010_0614_182602AA.JPG
p439
sg107
g213
sba(iPhoto
Photo
p440
(dp441
g98
S'2010_0710_112553AAA.jpg'
p442
sg105
V./data/mesAlbums/Papillon/grandes/2010_0710_112553AAA.jpg
p443
sg107
g218
sba(iPhoto
Photo
p444
(dp445
g98
S'2010_0621_134854AA.JPG'
p446
sg105
V./data/mesAlbums/Papillon/grandes/2010_0621_134854AA.JPG
p447
sg107
g223
sba(iPhoto
Photo
p448
(dp449
g98
S'2010_0701_193520AA0.jpg'
p450
sg105
V./data/mesAlbums/Papillon/grandes/2010_0701_193520AA0.jpg
p451
sg107
g228
sba(iPhoto
Photo
p452
(dp453
g98
S'2010_0701_193626AA0.jpg'
p454
sg105
V./data/mesAlbums/Papillon/grandes/2010_0701_193626AA0.jpg
p455
sg107
g233
sba(iPhoto
Photo
p456
(dp457
g98
S'2010_0708_191038AA.JPG'
p458
sg105
V./data/mesAlbums/Papillon/grandes/2010_0708_191038AA.JPG
p459
sg107
g238
sba(iPhoto
Photo
p460
(dp461
g98
S'2010_0923_154723ABA.jpg'
p462
sg105
V./data/mesAlbums/Papillon/grandes/2010_0923_154723ABA.jpg
p463
sg107
g123
sba(iPhoto
Photo
p464
(dp465
g98
S'2010_0703_105914AA.JPG'
p466
sg105
V./data/mesAlbums/Papillon/grandes/2010_0703_105914AA.JPG
p467
sg107
g247
sba(iPhoto
Photo
p468
(dp469
g98
S'2010_0921_140201AA.JPG'
p470
sg105
V./data/mesAlbums/Papillon/grandes/2010_0921_140201AA.JPG
p471
sg107
g123
sba(iPhoto
Photo
p472
(dp473
g98
S'2010_0708_175409A0A.jpg'
p474
sg105
V./data/mesAlbums/Papillon/grandes/2010_0708_175409A0A.jpg
p475
sg107
g256
sba(iPhoto
Photo
p476
(dp477
g98
S'2010_0921_140540AAA.jpg'
p478
sg105
V./data/mesAlbums/Papillon/grandes/2010_0921_140540AAA.jpg
p479
sg107
g123
sba(iPhoto
Photo
p480
(dp481
g98
S'2010_0708_191446AAAA.jpg'
p482
sg105
V./data/mesAlbums/Papillon/grandes/2010_0708_191446AAAA.jpg
p483
sg107
g265
sba(iPhoto
Photo
p484
(dp485
g98
S'2010_0914_134143AAA.jpg'
p486
sg105
V./data/mesAlbums/Papillon/grandes/2010_0914_134143AAA.jpg
p487
sg107
g123
sba(iPhoto
Photo
p488
(dp489
g98
S'2010_0622_185742AAc0.jpg'
p490
sg105
V./data/mesAlbums/Papillon/grandes/2010_0622_185742AAc0.jpg
p491
sg107
g274
sba(iPhoto
Photo
p492
(dp493
g98
S'2010_0921_150530AA.JPG'
p494
sg105
V./data/mesAlbums/Papillon/grandes/2010_0921_150530AA.JPG
p495
sg107
g123
sba(iPhoto
Photo
p496
(dp497
g98
S'2010_0615_131358AA0.jpg'
p498
sg105
V./data/mesAlbums/Papillon/grandes/2010_0615_131358AA0.jpg
p499
sg107
g283
sba(iPhoto
Photo
p500
(dp501
g98
S'2010_0621_144615AA.JPG'
p502
sg105
V./data/mesAlbums/Papillon/grandes/2010_0621_144615AA.JPG
p503
sg107
g288
sba(iPhoto
Photo
p504
(dp505
g98
S'2010_0728_151027AAA.jpg'
p506
sg105
V./data/mesAlbums/Papillon/grandes/2010_0728_151027AAA.jpg
p507
sg107
g293
sba(iPhoto
Photo
p508
(dp509
g98
S'P8040232A.jpg'
p510
sg105
V./data/mesAlbums/Papillon/grandes/P8040232A.jpg
p511
sg107
g298
sba(iPhoto
Photo
p512
(dp513
g98
S'2010_0907_125723AAA1.jpg'
p514
sg105
V./data/mesAlbums/Papillon/grandes/2010_0907_125723AAA1.jpg
p515
sg107
g123
sba(iPhoto
Photo
p516
(dp517
g98
S'2010_0801_124040AAA.jpg'
p518
sg105
V./data/mesAlbums/Papillon/grandes/2010_0801_124040AAA.jpg
p519
sg107
g307
sba(iPhoto
Photo
p520
(dp521
g98
S'2010_0806_145935AA.JPG'
p522
sg105
V./data/mesAlbums/Papillon/grandes/2010_0806_145935AA.JPG
p523
sg107
g312
sba(iPhoto
Photo
p524
(dp525
g98
S'2010_0921_135207AA.JPG'
p526
sg105
V./data/mesAlbums/Papillon/grandes/2010_0921_135207AA.JPG
p527
sg107
g123
sba(iPhoto
Photo
p528
(dp529
g98
S'2010_0806_121223AA.JPG'
p530
sg105
V./data/mesAlbums/Papillon/grandes/2010_0806_121223AA.JPG
p531
sg107
g321
sba(iPhoto
Photo
p532
(dp533
g98
S'2010_0806_131844AA.JPG'
p534
sg105
V./data/mesAlbums/Papillon/grandes/2010_0806_131844AA.JPG
p535
sg107
g326
sba(iPhoto
Photo
p536
(dp537
g98
S'2010_1007_141802AA1.jpg'
p538
sg105
V./data/mesAlbums/Papillon/grandes/2010_1007_141802AA1.jpg
p539
sg107
g123
sba(iPhoto
Photo
p540
(dp541
g98
S'2010_0806_145759AA.JPG'
p542
sg105
V./data/mesAlbums/Papillon/grandes/2010_0806_145759AA.JPG
p543
sg107
g335
sba(iPhoto
Photo
p544
(dp545
g98
S'2010_0822_161655AAA.jpg'
p546
sg105
V./data/mesAlbums/Papillon/grandes/2010_0822_161655AAA.jpg
p547
sg107
g340
sba(iPhoto
Photo
p548
(dp549
g98
S'2010_0822_161702AAA.jpg'
p550
sg105
V./data/mesAlbums/Papillon/grandes/2010_0822_161702AAA.jpg
p551
sg107
g345
sbasba(iAlbum
Album
p552
(dp553
g96
Vhttp://picasaweb.google.com/Dudz.Bacon/Droid#
p554
sg98
VDroid
p555
sg100
(lp556
(iPhoto
Photo
p557
(dp558
g98
S'2011_01_07_12_35_20_027.png'
p559
sg105
V./data/mesAlbums/Droid/minis/2011_01_07_12_35_20_027.png
p560
sg107
g123
sba(iPhoto
Photo
p561
(dp562
g98
S'imag0202.jpg'
p563
sg105
V./data/mesAlbums/Droid/minis/imag0202.jpg
p564
sg107
g123
sba(iPhoto
Photo
p565
(dp566
g98
S'imag0200.jpg'
p567
sg105
V./data/mesAlbums/Droid/minis/imag0200.jpg
p568
sg107
g123
sba(iPhoto
Photo
p569
(dp570
g98
S'imag0149_edit0.jpg'
p571
sg105
V./data/mesAlbums/Droid/minis/imag0149_edit0.jpg
p572
sg107
g123
sba(iPhoto
Photo
p573
(dp574
g98
S'IMAG0196.jpg'
p575
sg105
V./data/mesAlbums/Droid/minis/IMAG0196.jpg
p576
sg107
S'Inuendo<'
p577
sba(iPhoto
Photo
p578
(dp579
g98
S'None.jpg'
p580
sg105
V./data/mesAlbums/Droid/minis/None.jpg
p581
sg107
S'Inuendo_1<'
p582
sbasg346
(lp583
(iPhoto
Photo
p584
(dp585
g98
S'2011_01_07_12_35_20_027.png'
p586
sg105
V./data/mesAlbums/Droid/grandes/2011_01_07_12_35_20_027.png
p587
sg107
g123
sba(iPhoto
Photo
p588
(dp589
g98
S'imag0202.jpg'
p590
sg105
V./data/mesAlbums/Droid/grandes/imag0202.jpg
p591
sg107
g123
sba(iPhoto
Photo
p592
(dp593
g98
S'imag0200.jpg'
p594
sg105
V./data/mesAlbums/Droid/grandes/imag0200.jpg
p595
sg107
g123
sba(iPhoto
Photo
p596
(dp597
g98
S'imag0149_edit0.jpg'
p598
sg105
V./data/mesAlbums/Droid/grandes/imag0149_edit0.jpg
p599
sg107
g123
sba(iPhoto
Photo
p600
(dp601
g98
S'IMAG0196.jpg'
p602
sg105
V./data/mesAlbums/Droid/grandes/IMAG0196.jpg
p603
sg107
g577
sba(iPhoto
Photo
p604
(dp605
g98
S'None.jpg'
p606
sg105
V./data/mesAlbums/Droid/grandes/None.jpg
p607
sg107
g582
sbasba.